target datalayout = "e-m:e-p270:32:32-p271:32:32-p272:64:64-i64:64-i128:128-f80:128-n8:16:32:64-S128"
target triple = "x86_64-pc-linux-gnu"

%struct.Curl_hash = type { ptr, ptr, ptr, ptr, i64, i64 }
%struct.Curl_llist = type { ptr, ptr, ptr, i64 }
%struct.Curl_hash_element = type { %struct.Curl_llist_node, ptr, ptr, i64, [1 x i8] }
%struct.Curl_llist_node = type { ptr, ptr, ptr, ptr }

; Function Attrs: nounwind uwtable
define dso_local void @Curl_hash_clean_with_criterium(ptr noundef %0, ptr noundef %1, ptr noundef %2) #0 {
  %4 = alloca ptr, align 8
  %5 = alloca ptr, align 8
  %6 = alloca ptr, align 8
  %7 = alloca i64, align 8
  %8 = alloca i32, align 4
  %9 = alloca ptr, align 8
  %10 = alloca ptr, align 8
  %11 = alloca ptr, align 8
  %12 = alloca ptr, align 8
  store ptr %0, ptr %4, align 8, !tbaa !4
  store ptr %1, ptr %5, align 8, !tbaa !11
  store ptr %2, ptr %6, align 8, !tbaa !11
  call void @llvm.lifetime.start.p0(i64 8, ptr %7) #5
  %13 = load ptr, ptr %4, align 8, !tbaa !4
  %14 = icmp ne ptr %13, null
  br i1 %14, label %15, label %20

15:                                               ; preds = %3
  %16 = load ptr, ptr %4, align 8, !tbaa !4
  %17 = getelementptr inbounds nuw %struct.Curl_hash, ptr %16, i32 0, i32 0
  %18 = load ptr, ptr %17, align 8, !tbaa !12
  %19 = icmp ne ptr %18, null
  br i1 %19, label %21, label %20

20:                                               ; preds = %15, %3
  store i32 1, ptr %8, align 4
  br label %71

21:                                               ; preds = %15
  br label %22

22:                                               ; preds = %21
  br label %23

23:                                               ; preds = %22
  br label %24

24:                                               ; preds = %23
  store i64 0, ptr %7, align 8, !tbaa !9
  br label %25

25:                                               ; preds = %67, %24
  %26 = load i64, ptr %7, align 8, !tbaa !9
  %27 = load ptr, ptr %4, align 8, !tbaa !4
  %28 = getelementptr inbounds nuw %struct.Curl_hash, ptr %27, i32 0, i32 4
  %29 = load i64, ptr %28, align 8, !tbaa !19
  %30 = icmp ult i64 %26, %29
  br i1 %30, label %31, label %70

31:                                               ; preds = %25
  call void @llvm.lifetime.start.p0(i64 8, ptr %9) #5
  %32 = load ptr, ptr %4, align 8, !tbaa !4
  %33 = getelementptr inbounds nuw %struct.Curl_hash, ptr %32, i32 0, i32 0
  %34 = load ptr, ptr %33, align 8, !tbaa !12
  %35 = load i64, ptr %7, align 8, !tbaa !9
  %36 = getelementptr inbounds nuw %struct.Curl_llist, ptr %34, i64 %35
  store ptr %36, ptr %9, align 8, !tbaa !22
  call void @llvm.lifetime.start.p0(i64 8, ptr %10) #5
  %37 = load ptr, ptr %9, align 8, !tbaa !22
  %38 = call ptr @Curl_llist_head(ptr noundef %37)
  store ptr %38, ptr %10, align 8, !tbaa !23
  br label %39

39:                                               ; preds = %64, %31
  %40 = load ptr, ptr %10, align 8, !tbaa !23
  %41 = icmp ne ptr %40, null
  br i1 %41, label %42, label %66

42:                                               ; preds = %39
  call void @llvm.lifetime.start.p0(i64 8, ptr %11) #5
  %43 = load ptr, ptr %10, align 8, !tbaa !23
  %44 = call ptr @Curl_node_elem(ptr noundef %43)
  store ptr %44, ptr %11, align 8, !tbaa !25
  call void @llvm.lifetime.start.p0(i64 8, ptr %12) #5
  %45 = load ptr, ptr %10, align 8, !tbaa !23
  %46 = call ptr @Curl_node_next(ptr noundef %45)
  store ptr %46, ptr %12, align 8, !tbaa !23
  %47 = load ptr, ptr %6, align 8, !tbaa !11
  %48 = icmp ne ptr %47, null
  br i1 %48, label %49, label %57

49:                                               ; preds = %42
  %50 = load ptr, ptr %6, align 8, !tbaa !11
  %51 = load ptr, ptr %5, align 8, !tbaa !11
  %52 = load ptr, ptr %11, align 8, !tbaa !25
  %53 = getelementptr inbounds nuw %struct.Curl_hash_element, ptr %52, i32 0, i32 1
  %54 = load ptr, ptr %53, align 8, !tbaa !31
  %55 = call i32 %50(ptr noundef %51, ptr noundef %54)
  %56 = icmp ne i32 %55, 0
  br i1 %56, label %57, label %64

57:                                               ; preds = %49, %42
  %58 = load ptr, ptr %10, align 8, !tbaa !23
  %59 = load ptr, ptr %4, align 8, !tbaa !4
  call void @Curl_node_uremove(ptr noundef %58, ptr noundef %59)
  %60 = load ptr, ptr %4, align 8, !tbaa !4
  %61 = getelementptr inbounds nuw %struct.Curl_hash, ptr %60, i32 0, i32 5
  %62 = load i64, ptr %61, align 8, !tbaa !18
  %63 = add i64 %62, -1
  store i64 %63, ptr %61, align 8, !tbaa !18
  br label %64

64:                                               ; preds = %57, %49
  %65 = load ptr, ptr %12, align 8, !tbaa !23
  store ptr %65, ptr %10, align 8, !tbaa !23
  call void @llvm.lifetime.end.p0(i64 8, ptr %12) #5
  call void @llvm.lifetime.end.p0(i64 8, ptr %11) #5
  br label %39, !llvm.loop !36

66:                                               ; preds = %39
  call void @llvm.lifetime.end.p0(i64 8, ptr %10) #5
  call void @llvm.lifetime.end.p0(i64 8, ptr %9) #5
  br label %67

67:                                               ; preds = %66
  %68 = load i64, ptr %7, align 8, !tbaa !9
  %69 = add i64 %68, 1
  store i64 %69, ptr %7, align 8, !tbaa !9
  br label %25, !llvm.loop !37

70:                                               ; preds = %25
  store i32 0, ptr %8, align 4
  br label %71

71:                                               ; preds = %70, %20
  call void @llvm.lifetime.end.p0(i64 8, ptr %7) #5
  %72 = load i32, ptr %8, align 4
  switch i32 %72, label %74 [
    i32 0, label %73
    i32 1, label %73
  ]

73:                                               ; preds = %71, %71
  ret void

74:                                               ; preds = %71
  unreachable
}