; Function Attrs: nounwind uwtable
define dso_local void @Curl_hash_clean_with_criterium(ptr noundef %0, ptr noundef %1, ptr noundef readonly %2) local_unnamed_addr #1 {
  %.not = icmp eq ptr %0, null
  br i1 %.not, label %.loopexit, label %4

4:                                                ; preds = %3
  %5 = load ptr, ptr %0, align 8, !tbaa !4
  %.not21 = icmp eq ptr %5, null
  br i1 %.not21, label %.loopexit, label %.preheader

.preheader:                                       ; preds = %4
  %6 = getelementptr inbounds nuw i8, ptr %0, i64 32
  %7 = load i64, ptr %6, align 8, !tbaa !15
  %.not29 = icmp eq i64 %7, 0
  br i1 %.not29, label %.loopexit, label %.lr.ph28

.lr.ph28:                                         ; preds = %.preheader
  %.not23 = icmp eq ptr %2, null
  %8 = getelementptr inbounds nuw i8, ptr %0, i64 40
  br i1 %.not23, label %.lr.ph28.split.us, label %.lr.ph28.split

.lr.ph28.split.us:                                ; preds = %.lr.ph28, %._crit_edge.split.us.us
  %.027.us = phi i64 [ %12, %._crit_edge.split.us.us ], [ 0, %.lr.ph28 ]
  %9 = load ptr, ptr %0, align 8, !tbaa !4
  %10 = getelementptr inbounds nuw %struct.Curl_llist, ptr %9, i64 %.027.us
  %11 = tail call ptr @Curl_llist_head(ptr noundef %10) #9
  %.not2225.us = icmp eq ptr %11, null
  br i1 %.not2225.us, label %._crit_edge.split.us.us, label %.lr.ph.us

._crit_edge.split.us.us:                          ; preds = %.lr.ph.us, %.lr.ph28.split.us
  %12 = add nuw i64 %.027.us, 1
  %13 = load i64, ptr %6, align 8, !tbaa !15
  %14 = icmp ult i64 %12, %13
  br i1 %14, label %.lr.ph28.split.us, label %.loopexit, !llvm.loop !29

.lr.ph.us:                                        ; preds = %.lr.ph28.split.us, %.lr.ph.us
  %.01826.us.us = phi ptr [ %16, %.lr.ph.us ], [ %11, %.lr.ph28.split.us ]
  %15 = tail call ptr @Curl_node_elem(ptr noundef nonnull %.01826.us.us) #9
  %16 = tail call ptr @Curl_node_next(ptr noundef nonnull %.01826.us.us) #9
  tail call void @Curl_node_uremove(ptr noundef nonnull %.01826.us.us, ptr noundef nonnull %0) #9
  %17 = load i64, ptr %8, align 8, !tbaa !14
  %18 = add i64 %17, -1
  store i64 %18, ptr %8, align 8, !tbaa !14
  %.not22.us.us = icmp eq ptr %16, null
  br i1 %.not22.us.us, label %._crit_edge.split.us.us, label %.lr.ph.us, !llvm.loop !30

.lr.ph28.split:                                   ; preds = %.lr.ph28, %._crit_edge.split
  %.027 = phi i64 [ %31, %._crit_edge.split ], [ 0, %.lr.ph28 ]
  %19 = load ptr, ptr %0, align 8, !tbaa !4
  %20 = getelementptr inbounds nuw %struct.Curl_llist, ptr %19, i64 %.027
  %21 = tail call ptr @Curl_llist_head(ptr noundef %20) #9
  %.not2225 = icmp eq ptr %21, null
  br i1 %.not2225, label %._crit_edge.split, label %.lr.ph

.lr.ph:                                           ; preds = %.lr.ph28.split, %30
  %.01826 = phi ptr [ %23, %30 ], [ %21, %.lr.ph28.split ]
  %22 = tail call ptr @Curl_node_elem(ptr noundef nonnull %.01826) #9
  %23 = tail call ptr @Curl_node_next(ptr noundef nonnull %.01826) #9
  %24 = getelementptr inbounds nuw i8, ptr %22, i64 32
  %25 = load ptr, ptr %24, align 8, !tbaa !24
  %26 = tail call i32 %2(ptr noundef %1, ptr noundef %25) #9
  %.not24 = icmp eq i32 %26, 0
  br i1 %.not24, label %30, label %27

27:                                               ; preds = %.lr.ph
  tail call void @Curl_node_uremove(ptr noundef nonnull %.01826, ptr noundef nonnull %0) #9
  %28 = load i64, ptr %8, align 8, !tbaa !14
  %29 = add i64 %28, -1
  store i64 %29, ptr %8, align 8, !tbaa !14
  br label %30

30:                                               ; preds = %27, %.lr.ph
  %.not22 = icmp eq ptr %23, null
  br i1 %.not22, label %._crit_edge.split, label %.lr.ph, !llvm.loop !30

._crit_edge.split:                                ; preds = %30, %.lr.ph28.split
  %31 = add nuw i64 %.027, 1
  %32 = load i64, ptr %6, align 8, !tbaa !15
  %33 = icmp ult i64 %31, %32
  br i1 %33, label %.lr.ph28.split, label %.loopexit, !llvm.loop !29

.loopexit:                                        ; preds = %._crit_edge.split, %._crit_edge.split.us.us, %.preheader, %3, %4
  ret void
}